#include <math.h>
#include <stdio.h>
#include <stdlib.h>
#include <string.h>

int main()
{
	int n,f[21],a[21],i;
	scanf("%d",&n);
	for (i=1;i<=n;i++) 
		scanf("%d",&a[i]);
	f[1]=1;
	f[2]=1;
	for (i=3;i<=20;i++)
		f[i]=f[i-1]+f[i-2];
	for (i=1;i<=n;i++)
		printf("%d\n",f[a[i]]);
	return 0;
}