; ModuleID = 'source-C-CXX/60/1198.c'
source_filename = "source-C-CXX/60/1198.c"
target datalayout = "e-m:e-p270:32:32-p271:32:32-p272:64:64-i64:64-f80:128-n8:16:32:64-S128"
target triple = "x86_64-pc-linux-gnu"

@.str = private unnamed_addr constant [3 x i8] c"%d\00", align 1
@.str.1 = private unnamed_addr constant [4 x i8] c"%d\0A\00", align 1

; Function Attrs: nofree nounwind sspstrong uwtable
define dso_local i32 @main() local_unnamed_addr #0 {
  %1 = alloca i32, align 4
  %2 = alloca [21 x i32], align 16
  %3 = alloca [21 x i32], align 16
  %4 = bitcast i32* %1 to i8*
  call void @llvm.lifetime.start.p0i8(i64 4, i8* nonnull %4) #3
  %5 = bitcast [21 x i32]* %2 to i8*
  call void @llvm.lifetime.start.p0i8(i64 84, i8* nonnull %5) #3
  %6 = bitcast [21 x i32]* %3 to i8*
  call void @llvm.lifetime.start.p0i8(i64 84, i8* nonnull %6) #3
  %7 = call i32 (i8*, ...) @__isoc99_scanf(i8* getelementptr inbounds ([3 x i8], [3 x i8]* @.str, i64 0, i64 0), i32* nonnull %1)
  %8 = load i32, i32* %1, align 4, !tbaa !5
  %9 = icmp slt i32 %8, 1
  br i1 %9, label %18, label %10

10:                                               ; preds = %0, %10
  %11 = phi i64 [ %14, %10 ], [ 1, %0 ]
  %12 = getelementptr inbounds [21 x i32], [21 x i32]* %3, i64 0, i64 %11
  %13 = call i32 (i8*, ...) @__isoc99_scanf(i8* getelementptr inbounds ([3 x i8], [3 x i8]* @.str, i64 0, i64 0), i32* nonnull %12)
  %14 = add nuw nsw i64 %11, 1
  %15 = load i32, i32* %1, align 4, !tbaa !5
  %16 = sext i32 %15 to i64
  %17 = icmp slt i64 %11, %16
  br i1 %17, label %10, label %18, !llvm.loop !9

18:                                               ; preds = %10, %0
  %19 = phi i32 [ %8, %0 ], [ %15, %10 ]
  %20 = getelementptr inbounds [21 x i32], [21 x i32]* %2, i64 0, i64 1
  %21 = bitcast i32* %20 to <4 x i32>*
  store <4 x i32> <i32 1, i32 1, i32 2, i32 3>, <4 x i32>* %21, align 4, !tbaa !5
  %22 = getelementptr inbounds [21 x i32], [21 x i32]* %2, i64 0, i64 5
  %23 = bitcast i32* %22 to <4 x i32>*
  store <4 x i32> <i32 5, i32 8, i32 13, i32 21>, <4 x i32>* %23, align 4, !tbaa !5
  %24 = getelementptr inbounds [21 x i32], [21 x i32]* %2, i64 0, i64 9
  %25 = bitcast i32* %24 to <4 x i32>*
  store <4 x i32> <i32 34, i32 55, i32 89, i32 144>, <4 x i32>* %25, align 4, !tbaa !5
  %26 = getelementptr inbounds [21 x i32], [21 x i32]* %2, i64 0, i64 13
  %27 = bitcast i32* %26 to <4 x i32>*
  store <4 x i32> <i32 233, i32 377, i32 610, i32 987>, <4 x i32>* %27, align 4, !tbaa !5
  %28 = getelementptr inbounds [21 x i32], [21 x i32]* %2, i64 0, i64 17
  %29 = bitcast i32* %28 to <4 x i32>*
  store <4 x i32> <i32 1597, i32 2584, i32 4181, i32 6765>, <4 x i32>* %29, align 4, !tbaa !5
  %30 = icmp slt i32 %19, 1
  br i1 %30, label %43, label %31

31:                                               ; preds = %18, %31
  %32 = phi i64 [ %39, %31 ], [ 1, %18 ]
  %33 = getelementptr inbounds [21 x i32], [21 x i32]* %3, i64 0, i64 %32
  %34 = load i32, i32* %33, align 4, !tbaa !5
  %35 = sext i32 %34 to i64
  %36 = getelementptr inbounds [21 x i32], [21 x i32]* %2, i64 0, i64 %35
  %37 = load i32, i32* %36, align 4, !tbaa !5
  %38 = call i32 (i8*, ...) @printf(i8* nonnull dereferenceable(1) getelementptr inbounds ([4 x i8], [4 x i8]* @.str.1, i64 0, i64 0), i32 %37)
  %39 = add nuw nsw i64 %32, 1
  %40 = load i32, i32* %1, align 4, !tbaa !5
  %41 = sext i32 %40 to i64
  %42 = icmp slt i64 %32, %41
  br i1 %42, label %31, label %43, !llvm.loop !11

43:                                               ; preds = %31, %18
  call void @llvm.lifetime.end.p0i8(i64 84, i8* nonnull %6) #3
  call void @llvm.lifetime.end.p0i8(i64 84, i8* nonnull %5) #3
  call void @llvm.lifetime.end.p0i8(i64 4, i8* nonnull %4) #3
  ret i32 0
}

; Function Attrs: argmemonly mustprogress nofree nosync nounwind willreturn
declare void @llvm.lifetime.start.p0i8(i64 immarg, i8* nocapture) #1

; Function Attrs: nofree nounwind
declare noundef i32 @__isoc99_scanf(i8* nocapture noundef readonly, ...) local_unnamed_addr #2

; Function Attrs: nofree nounwind
declare noundef i32 @printf(i8* nocapture noundef readonly, ...) local_unnamed_addr #2

; Function Attrs: argmemonly mustprogress nofree nosync nounwind willreturn
declare void @llvm.lifetime.end.p0i8(i64 immarg, i8* nocapture) #1


!llvm.module.flags = !{!0, !1, !2, !3}
!llvm.ident = !{!4}

!0 = !{i32 1, !"wchar_size", i32 4}
!1 = !{i32 7, !"PIC Level", i32 2}
!2 = !{i32 7, !"PIE Level", i32 2}
!3 = !{i32 7, !"uwtable", i32 1}
!4 = !{!"clang version 13.0.0"}
!5 = !{!6, !6, i64 0}
!6 = !{!"int", !7, i64 0}
!7 = !{!"omnipotent char", !8, i64 0}
!8 = !{!"Simple C/C++ TBAA"}
!9 = distinct !{!9, !10}
!10 = !{!"llvm.loop.mustprogress"}
!11 = distinct !{!11, !10}
